target datalayout = "e-m:e-p270:32:32-p271:32:32-p272:64:64-i64:64-i128:128-f80:128-n8:16:32:64-S128"
target triple = "x86_64-pc-linux-gnu"

%struct.t_enxframe = type { double, i64, i64, double, i32, i32, i32, i32, ptr, i32, ptr, i32 }
%struct.t_enxblock = type { i32, i32, ptr, i32 }

; Function Attrs: mustprogress nounwind uwtable
define noundef ptr @_Z22find_block_id_enxframeP10t_enxframeiP10t_enxblock(ptr noundef %0, i32 noundef %1, ptr noundef %2) #0 {
  %4 = alloca ptr, align 8
  %5 = alloca ptr, align 8
  %6 = alloca i32, align 4
  %7 = alloca ptr, align 8
  %8 = alloca i64, align 8
  %9 = alloca i64, align 8
  store ptr %0, ptr %5, align 8
  store i32 %1, ptr %6, align 4
  store ptr %2, ptr %7, align 8
  store i64 0, ptr %8, align 8
  %10 = load ptr, ptr %7, align 8
  %11 = icmp ne ptr %10, null
  br i1 %11, label %12, label %22

12:                                               ; preds = %3
  %13 = load ptr, ptr %7, align 8
  %14 = load ptr, ptr %5, align 8
  %15 = getelementptr inbounds %struct.t_enxframe, ptr %14, i32 0, i32 10
  %16 = load ptr, ptr %15, align 8
  %17 = ptrtoint ptr %13 to i64
  %18 = ptrtoint ptr %16 to i64
  %19 = sub i64 %17, %18
  %20 = sdiv exact i64 %19, 24
  %21 = add nsw i64 %20, 1
  store i64 %21, ptr %8, align 8
  br label %22

22:                                               ; preds = %12, %3
  %23 = load i64, ptr %8, align 8
  store i64 %23, ptr %9, align 8
  br label %24

24:                                               ; preds = %48, %22
  %25 = load i64, ptr %9, align 8
  %26 = load ptr, ptr %5, align 8
  %27 = getelementptr inbounds %struct.t_enxframe, ptr %26, i32 0, i32 9
  %28 = load i32, ptr %27, align 8
  %29 = sext i32 %28 to i64
  %30 = icmp slt i64 %25, %29
  br i1 %30, label %31, label %51

31:                                               ; preds = %24
  %32 = load ptr, ptr %5, align 8
  %33 = getelementptr inbounds %struct.t_enxframe, ptr %32, i32 0, i32 10
  %34 = load ptr, ptr %33, align 8
  %35 = load i64, ptr %9, align 8
  %36 = getelementptr inbounds %struct.t_enxblock, ptr %34, i64 %35
  %37 = getelementptr inbounds %struct.t_enxblock, ptr %36, i32 0, i32 0
  %38 = load i32, ptr %37, align 8
  %39 = load i32, ptr %6, align 4
  %40 = icmp eq i32 %38, %39
  br i1 %40, label %41, label %47

41:                                               ; preds = %31
  %42 = load ptr, ptr %5, align 8
  %43 = getelementptr inbounds %struct.t_enxframe, ptr %42, i32 0, i32 10
  %44 = load ptr, ptr %43, align 8
  %45 = load i64, ptr %9, align 8
  %46 = getelementptr inbounds %struct.t_enxblock, ptr %44, i64 %45
  store ptr %46, ptr %4, align 8
  br label %52

47:                                               ; preds = %31
  br label %48

48:                                               ; preds = %47
  %49 = load i64, ptr %9, align 8
  %50 = add nsw i64 %49, 1
  store i64 %50, ptr %9, align 8
  br label %24, !llvm.loop !10

51:                                               ; preds = %24
  store ptr null, ptr %4, align 8
  br label %52

52:                                               ; preds = %51, %41
  %53 = load ptr, ptr %4, align 8
  ret ptr %53
}