; Function Attrs: mustprogress nofree norecurse nosync nounwind willreturn memory(read, inaccessiblemem: none) uwtable
define noundef ptr @_Z22find_block_id_enxframeP10t_enxframeiP10t_enxblock(ptr nocapture noundef readonly %0, i32 noundef %1, ptr noundef %2) local_unnamed_addr #3 {
  %.not = icmp eq ptr %2, null
  br i1 %.not, label %12, label %4

4:                                                ; preds = %3
  %5 = getelementptr inbounds i8, ptr %0, i64 64
  %6 = load ptr, ptr %5, align 8
  %7 = ptrtoint ptr %2 to i64
  %8 = ptrtoint ptr %6 to i64
  %9 = sub i64 %7, %8
  %10 = sdiv exact i64 %9, 24
  %11 = add nsw i64 %10, 1
  br label %12

12:                                               ; preds = %4, %3
  %.012 = phi i64 [ %11, %4 ], [ 0, %3 ]
  %13 = getelementptr inbounds i8, ptr %0, i64 56
  %14 = load i32, ptr %13, align 8
  %15 = sext i32 %14 to i64
  %16 = icmp slt i64 %.012, %15
  br i1 %16, label %.lr.ph, label %._crit_edge

.lr.ph:                                           ; preds = %12
  %17 = getelementptr inbounds i8, ptr %0, i64 64
  %18 = load ptr, ptr %17, align 8
  br label %21

19:                                               ; preds = %21
  %20 = add nsw i64 %.015, 1
  %exitcond.not = icmp eq i64 %20, %15
  br i1 %exitcond.not, label %._crit_edge, label %21, !llvm.loop !10

21:                                               ; preds = %.lr.ph, %19
  %.015 = phi i64 [ %.012, %.lr.ph ], [ %20, %19 ]
  %22 = getelementptr inbounds %struct.t_enxblock, ptr %18, i64 %.015
  %23 = load i32, ptr %22, align 8
  %24 = icmp eq i32 %23, %1
  br i1 %24, label %._crit_edge, label %19

._crit_edge:                                      ; preds = %21, %19, %12
  %.013 = phi ptr [ null, %12 ], [ null, %19 ], [ %22, %21 ]
  ret ptr %.013
}